; ModuleID = '29/859.c'
source_filename = "29/859.c"
target datalayout = "e-m:e-p270:32:32-p271:32:32-p272:64:64-i64:64-f80:128-n8:16:32:64-S128"
target triple = "x86_64-pc-linux-gnu"

@.str = private unnamed_addr constant [3 x i8] c"%d\00", align 1
@.str.1 = private unnamed_addr constant [7 x i8] c"%.3lf\0A\00", align 1

; Function Attrs: noinline nounwind uwtable
define dso_local i32 @main() #0 {
  %1 = alloca i32, align 4
  %2 = alloca i32, align 4
  %3 = alloca i32, align 4
  %4 = alloca i32, align 4
  %5 = alloca i32, align 4
  %6 = alloca double, align 8
  store i32 0, i32* %1, align 4
  store double 0.000000e+00, double* %6, align 8
  %7 = call i32 (i8*, ...) @__isoc99_scanf(i8* getelementptr inbounds ([3 x i8], [3 x i8]* @.str, i64 0, i64 0), i32* %5)
  store i32 0, i32* %4, align 4
  br label %8

8:                                                ; preds = %35, %0
  %9 = load i32, i32* %4, align 4
  %10 = load i32, i32* %5, align 4
  %11 = icmp slt i32 %9, %10
  br i1 %11, label %12, label %38

12:                                               ; preds = %8
  store double 0.000000e+00, double* %6, align 8
  %13 = call i32 (i8*, ...) @__isoc99_scanf(i8* getelementptr inbounds ([3 x i8], [3 x i8]* @.str, i64 0, i64 0), i32* %2)
  store i32 0, i32* %3, align 4
  br label %14

14:                                               ; preds = %29, %12
  %15 = load i32, i32* %3, align 4
  %16 = load i32, i32* %2, align 4
  %17 = icmp slt i32 %15, %16
  br i1 %17, label %18, label %32

18:                                               ; preds = %14
  %19 = load i32, i32* %3, align 4
  %20 = add nsw i32 %19, 1
  %21 = call i32 @shulie(i32 %20)
  %22 = sitofp i32 %21 to double
  %23 = load i32, i32* %3, align 4
  %24 = call i32 @shulie(i32 %23)
  %25 = sitofp i32 %24 to double
  %26 = fdiv double %22, %25
  %27 = load double, double* %6, align 8
  %28 = fadd double %27, %26
  store double %28, double* %6, align 8
  br label %29

29:                                               ; preds = %18
  %30 = load i32, i32* %3, align 4
  %31 = add nsw i32 %30, 1
  store i32 %31, i32* %3, align 4
  br label %14

32:                                               ; preds = %14
  %33 = load double, double* %6, align 8
  %34 = call i32 (i8*, ...) @printf(i8* getelementptr inbounds ([7 x i8], [7 x i8]* @.str.1, i64 0, i64 0), double %33)
  br label %35

35:                                               ; preds = %32
  %36 = load i32, i32* %4, align 4
  %37 = add nsw i32 %36, 1
  store i32 %37, i32* %4, align 4
  br label %8

38:                                               ; preds = %8
  ret i32 0
}

declare dso_local i32 @__isoc99_scanf(i8*, ...) #1

; Function Attrs: noinline nounwind uwtable
define dso_local i32 @shulie(i32 %0) #0 {
  %2 = alloca i32, align 4
  %3 = alloca i32, align 4
  %4 = alloca [100 x i32], align 16
  store i32 %0, i32* %2, align 4
  %5 = getelementptr inbounds [100 x i32], [100 x i32]* %4, i64 0, i64 0
  store i32 1, i32* %5, align 16
  %6 = getelementptr inbounds [100 x i32], [100 x i32]* %4, i64 0, i64 1
  store i32 2, i32* %6, align 4
  store i32 2, i32* %3, align 4
  br label %7

7:                                                ; preds = %26, %1
  %8 = load i32, i32* %3, align 4
  %9 = load i32, i32* %2, align 4
  %10 = icmp sle i32 %8, %9
  br i1 %10, label %11, label %29

11:                                               ; preds = %7
  %12 = load i32, i32* %3, align 4
  %13 = sub nsw i32 %12, 1
  %14 = sext i32 %13 to i64
  %15 = getelementptr inbounds [100 x i32], [100 x i32]* %4, i64 0, i64 %14
  %16 = load i32, i32* %15, align 4
  %17 = load i32, i32* %3, align 4
  %18 = sub nsw i32 %17, 2
  %19 = sext i32 %18 to i64
  %20 = getelementptr inbounds [100 x i32], [100 x i32]* %4, i64 0, i64 %19
  %21 = load i32, i32* %20, align 4
  %22 = add nsw i32 %16, %21
  %23 = load i32, i32* %3, align 4
  %24 = sext i32 %23 to i64
  %25 = getelementptr inbounds [100 x i32], [100 x i32]* %4, i64 0, i64 %24
  store i32 %22, i32* %25, align 4
  br label %26

26:                                               ; preds = %11
  %27 = load i32, i32* %3, align 4
  %28 = add nsw i32 %27, 1
  store i32 %28, i32* %3, align 4
  br label %7

29:                                               ; preds = %7
  %30 = load i32, i32* %2, align 4
  %31 = sext i32 %30 to i64
  %32 = getelementptr inbounds [100 x i32], [100 x i32]* %4, i64 0, i64 %31
  %33 = load i32, i32* %32, align 4
  ret i32 %33
}

declare dso_local i32 @printf(i8*, ...) #1


!llvm.module.flags = !{!0}
!llvm.ident = !{!1}

!0 = !{i32 1, !"wchar_size", i32 4}
!1 = !{!"clang version 10.0.0-4ubuntu1 "}
